target datalayout = "e-m:e-p270:32:32-p271:32:32-p272:64:64-i64:64-i128:128-f80:128-n8:16:32:64-S128"
target triple = "x86_64-pc-linux-gnu"

%struct.ossl_param_st = type { ptr, i32, ptr, i64, i64 }
%struct.key_st = type { ptr, i32, ptr, ptr }

@.str.14 = private unnamed_addr constant [40 x i8] c"../openssl/test/endecoder_legacy_test.c\00", align 1
@.str.15 = private unnamed_addr constant [28 x i8] c"Error parsing test options\0A\00", align 1
@.str.16 = private unnamed_addr constant [32 x i8] c"usage: endecoder_legacy_test %s\00", align 1
@.str.17 = private unnamed_addr constant [24 x i8] c"rsa-key.pem dh-key.pem\0A\00", align 1
@.str.18 = private unnamed_addr constant [19 x i8] c"Generating keys...\00", align 1
@.str.19 = private unnamed_addr constant [3 x i8] c"DH\00", align 1
@.str.20 = private unnamed_addr constant [56 x i8] c"keys[i].key = load_pkey_pem(test_get_argument(1), NULL)\00", align 1
@.str.21 = private unnamed_addr constant [4 x i8] c"RSA\00", align 1
@.str.22 = private unnamed_addr constant [56 x i8] c"keys[i].key = load_pkey_pem(test_get_argument(0), NULL)\00", align 1
@.str.23 = private unnamed_addr constant [21 x i8] c"Generating %s key...\00", align 1
@.str.24 = private unnamed_addr constant [65 x i8] c"keys[i].key = make_key(keys[i].keytype, keys[i].template_params)\00", align 1
@.str.25 = private unnamed_addr constant [21 x i8] c"Generating keys done\00", align 1
@.str.26 = private unnamed_addr constant [9 x i8] c"test_key\00", align 1

; Function Attrs: nounwind uwtable
define internal ptr @make_key(ptr noundef %0, ptr noundef %1) #0 {
  %3 = alloca ptr, align 8
  %4 = alloca ptr, align 8
  %5 = alloca ptr, align 8
  %6 = alloca ptr, align 8
  %7 = alloca ptr, align 8
  %8 = alloca ptr, align 8
  store ptr %0, ptr %3, align 8, !tbaa !19
  store ptr %1, ptr %4, align 8, !tbaa !20
  call void @llvm.lifetime.start.p0(i64 8, ptr %5) #4
  store ptr null, ptr %5, align 8, !tbaa !21
  call void @llvm.lifetime.start.p0(i64 8, ptr %6) #4
  store ptr null, ptr %6, align 8, !tbaa !21
  call void @llvm.lifetime.start.p0(i64 8, ptr %7) #4
  store ptr null, ptr %7, align 8, !tbaa !22
  call void @llvm.lifetime.start.p0(i64 8, ptr %8) #4
  %9 = load ptr, ptr %4, align 8, !tbaa !20
  store ptr %9, ptr %8, align 8, !tbaa !20
  %10 = load ptr, ptr %4, align 8, !tbaa !20
  %11 = icmp ne ptr %10, null
  br i1 %11, label %12, label %36

12:                                               ; preds = %2
  %13 = load ptr, ptr %3, align 8, !tbaa !19
  %14 = call ptr @EVP_PKEY_CTX_new_from_name(ptr noundef null, ptr noundef %13, ptr noundef null)
  store ptr %14, ptr %7, align 8, !tbaa !22
  %15 = icmp eq ptr %14, null
  br i1 %15, label %35, label %16

16:                                               ; preds = %12
  %17 = load ptr, ptr %7, align 8, !tbaa !22
  %18 = call i32 @EVP_PKEY_paramgen_init(ptr noundef %17)
  %19 = icmp sle i32 %18, 0
  br i1 %19, label %35, label %20

20:                                               ; preds = %16
  %21 = load ptr, ptr %4, align 8, !tbaa !20
  %22 = getelementptr inbounds %struct.ossl_param_st, ptr %21, i64 0
  %23 = getelementptr inbounds nuw %struct.ossl_param_st, ptr %22, i32 0, i32 0
  %24 = load ptr, ptr %23, align 8, !tbaa !24
  %25 = icmp ne ptr %24, null
  br i1 %25, label %26, label %31

26:                                               ; preds = %20
  %27 = load ptr, ptr %7, align 8, !tbaa !22
  %28 = load ptr, ptr %8, align 8, !tbaa !20
  %29 = call i32 @EVP_PKEY_CTX_set_params(ptr noundef %27, ptr noundef %28)
  %30 = icmp sle i32 %29, 0
  br i1 %30, label %35, label %31

31:                                               ; preds = %26, %20
  %32 = load ptr, ptr %7, align 8, !tbaa !22
  %33 = call i32 @EVP_PKEY_generate(ptr noundef %32, ptr noundef %5)
  %34 = icmp sle i32 %33, 0
  br i1 %34, label %35, label %36

35:                                               ; preds = %31, %26, %16, %12
  br label %58

36:                                               ; preds = %31, %2
  %37 = load ptr, ptr %7, align 8, !tbaa !22
  call void @EVP_PKEY_CTX_free(ptr noundef %37)
  %38 = load ptr, ptr %5, align 8, !tbaa !21
  %39 = icmp ne ptr %38, null
  br i1 %39, label %40, label %43

40:                                               ; preds = %36
  %41 = load ptr, ptr %5, align 8, !tbaa !21
  %42 = call ptr @EVP_PKEY_CTX_new(ptr noundef %41, ptr noundef null)
  br label %46

43:                                               ; preds = %36
  %44 = load ptr, ptr %3, align 8, !tbaa !19
  %45 = call ptr @EVP_PKEY_CTX_new_from_name(ptr noundef null, ptr noundef %44, ptr noundef null)
  br label %46

46:                                               ; preds = %43, %40
  %47 = phi ptr [ %42, %40 ], [ %45, %43 ]
  store ptr %47, ptr %7, align 8, !tbaa !22
  %48 = load ptr, ptr %7, align 8, !tbaa !22
  %49 = icmp ne ptr %48, null
  br i1 %49, label %50, label %57

50:                                               ; preds = %46
  %51 = load ptr, ptr %7, align 8, !tbaa !22
  %52 = call i32 @EVP_PKEY_keygen_init(ptr noundef %51)
  %53 = icmp sgt i32 %52, 0
  br i1 %53, label %54, label %57

54:                                               ; preds = %50
  %55 = load ptr, ptr %7, align 8, !tbaa !22
  %56 = call i32 @EVP_PKEY_keygen(ptr noundef %55, ptr noundef %6)
  br label %57

57:                                               ; preds = %54, %50, %46
  br label %58

58:                                               ; preds = %57, %35
  %59 = load ptr, ptr %5, align 8, !tbaa !21
  call void @EVP_PKEY_free(ptr noundef %59)
  %60 = load ptr, ptr %7, align 8, !tbaa !22
  call void @EVP_PKEY_CTX_free(ptr noundef %60)
  %61 = load ptr, ptr %6, align 8, !tbaa !21
  call void @llvm.lifetime.end.p0(i64 8, ptr %8) #4
  call void @llvm.lifetime.end.p0(i64 8, ptr %7) #4
  call void @llvm.lifetime.end.p0(i64 8, ptr %6) #4
  call void @llvm.lifetime.end.p0(i64 8, ptr %5) #4
  ret ptr %61
}

; Function Attrs: nounwind uwtable
define dso_local i32 @setup_tests() #0 {
  %1 = alloca i32, align 4
  %2 = alloca i64, align 8
  %3 = alloca i32, align 4
  call void @llvm.lifetime.start.p0(i64 8, ptr %2) #4
  %4 = call i32 @test_skip_common_options()
  %5 = icmp ne i32 %4, 0
  br i1 %5, label %7, label %6

6:                                                ; preds = %0
  call void (ptr, i32, ptr, ...) @test_error(ptr noundef @.str.14, i32 noundef 686, ptr noundef @.str.15)
  store i32 0, ptr %1, align 4
  store i32 1, ptr %3, align 4
  br label %74

7:                                                ; preds = %0
  %8 = call i64 @test_get_argument_count()
  %9 = icmp ne i64 %8, 2
  br i1 %9, label %10, label %11

10:                                               ; preds = %7
  call void (ptr, i32, ptr, ...) @test_error(ptr noundef @.str.14, i32 noundef 690, ptr noundef @.str.16, ptr noundef @.str.17)
  store i32 0, ptr %1, align 4
  store i32 1, ptr %3, align 4
  br label %74

11:                                               ; preds = %7
  call void (ptr, i32, ptr, ...) @test_info(ptr noundef @.str.14, i32 noundef 694, ptr noundef @.str.18)
  store i64 0, ptr %2, align 8, !tbaa !4
  br label %12

12:                                               ; preds = %70, %11
  %13 = load i64, ptr %2, align 8, !tbaa !4
  %14 = icmp ult i64 %13, 5
  br i1 %14, label %15, label %73

15:                                               ; preds = %12
  %16 = load i64, ptr %2, align 8, !tbaa !4
  %17 = getelementptr inbounds nuw [5 x %struct.key_st], ptr @keys, i64 0, i64 %16
  %18 = getelementptr inbounds nuw %struct.key_st, ptr %17, i32 0, i32 0
  %19 = load ptr, ptr %18, align 16, !tbaa !8
  %20 = call i32 @strcmp(ptr noundef %19, ptr noundef @.str.19) #5
  %21 = icmp eq i32 %20, 0
  br i1 %21, label %22, label %32

22:                                               ; preds = %15
  %23 = call ptr @test_get_argument(i64 noundef 1)
  %24 = call ptr @load_pkey_pem(ptr noundef %23, ptr noundef null)
  %25 = load i64, ptr %2, align 8, !tbaa !4
  %26 = getelementptr inbounds nuw [5 x %struct.key_st], ptr @keys, i64 0, i64 %25
  %27 = getelementptr inbounds nuw %struct.key_st, ptr %26, i32 0, i32 3
  store ptr %24, ptr %27, align 8, !tbaa !15
  %28 = call i32 @test_ptr(ptr noundef @.str.14, i32 noundef 700, ptr noundef @.str.20, ptr noundef %24)
  %29 = icmp ne i32 %28, 0
  br i1 %29, label %31, label %30

30:                                               ; preds = %22
  store i32 0, ptr %1, align 4
  store i32 1, ptr %3, align 4
  br label %74

31:                                               ; preds = %22
  br label %70

32:                                               ; preds = %15
  %33 = load i64, ptr %2, align 8, !tbaa !4
  %34 = getelementptr inbounds nuw [5 x %struct.key_st], ptr @keys, i64 0, i64 %33
  %35 = getelementptr inbounds nuw %struct.key_st, ptr %34, i32 0, i32 0
  %36 = load ptr, ptr %35, align 16, !tbaa !8
  %37 = call i32 @strcmp(ptr noundef %36, ptr noundef @.str.21) #5
  %38 = icmp eq i32 %37, 0
  br i1 %38, label %39, label %49

39:                                               ; preds = %32
  %40 = call ptr @test_get_argument(i64 noundef 0)
  %41 = call ptr @load_pkey_pem(ptr noundef %40, ptr noundef null)
  %42 = load i64, ptr %2, align 8, !tbaa !4
  %43 = getelementptr inbounds nuw [5 x %struct.key_st], ptr @keys, i64 0, i64 %42
  %44 = getelementptr inbounds nuw %struct.key_st, ptr %43, i32 0, i32 3
  store ptr %41, ptr %44, align 8, !tbaa !15
  %45 = call i32 @test_ptr(ptr noundef @.str.14, i32 noundef 708, ptr noundef @.str.22, ptr noundef %41)
  %46 = icmp ne i32 %45, 0
  br i1 %46, label %48, label %47

47:                                               ; preds = %39
  store i32 0, ptr %1, align 4
  store i32 1, ptr %3, align 4
  br label %74

48:                                               ; preds = %39
  br label %70

49:                                               ; preds = %32
  %50 = load i64, ptr %2, align 8, !tbaa !4
  %51 = getelementptr inbounds nuw [5 x %struct.key_st], ptr @keys, i64 0, i64 %50
  %52 = getelementptr inbounds nuw %struct.key_st, ptr %51, i32 0, i32 0
  %53 = load ptr, ptr %52, align 16, !tbaa !8
  call void (ptr, i32, ptr, ...) @test_info(ptr noundef @.str.14, i32 noundef 713, ptr noundef @.str.23, ptr noundef %53)
  %54 = load i64, ptr %2, align 8, !tbaa !4
  %55 = getelementptr inbounds nuw [5 x %struct.key_st], ptr @keys, i64 0, i64 %54
  %56 = getelementptr inbounds nuw %struct.key_st, ptr %55, i32 0, i32 0
  %57 = load ptr, ptr %56, align 16, !tbaa !8
  %58 = load i64, ptr %2, align 8, !tbaa !4
  %59 = getelementptr inbounds nuw [5 x %struct.key_st], ptr @keys, i64 0, i64 %58
  %60 = getelementptr inbounds nuw %struct.key_st, ptr %59, i32 0, i32 2
  %61 = load ptr, ptr %60, align 16, !tbaa !16
  %62 = call ptr @make_key(ptr noundef %57, ptr noundef %61)
  %63 = load i64, ptr %2, align 8, !tbaa !4
  %64 = getelementptr inbounds nuw [5 x %struct.key_st], ptr @keys, i64 0, i64 %63
  %65 = getelementptr inbounds nuw %struct.key_st, ptr %64, i32 0, i32 3
  store ptr %62, ptr %65, align 8, !tbaa !15
  %66 = call i32 @test_ptr(ptr noundef @.str.14, i32 noundef 715, ptr noundef @.str.24, ptr noundef %62)
  %67 = icmp ne i32 %66, 0
  br i1 %67, label %69, label %68

68:                                               ; preds = %49
  store i32 0, ptr %1, align 4
  store i32 1, ptr %3, align 4
  br label %74

69:                                               ; preds = %49
  br label %70

70:                                               ; preds = %69, %48, %31
  %71 = load i64, ptr %2, align 8, !tbaa !4
  %72 = add i64 %71, 1
  store i64 %72, ptr %2, align 8, !tbaa !4
  br label %12, !llvm.loop !17

73:                                               ; preds = %12
  call void (ptr, i32, ptr, ...) @test_info(ptr noundef @.str.14, i32 noundef 719, ptr noundef @.str.25)
  call void @add_all_tests(ptr noundef @.str.26, ptr noundef @test_key, i32 noundef 5, i32 noundef 1)
  store i32 1, ptr %1, align 4
  store i32 1, ptr %3, align 4
  br label %74

74:                                               ; preds = %73, %68, %47, %30, %10, %6
  call void @llvm.lifetime.end.p0(i64 8, ptr %2) #4
  %75 = load i32, ptr %1, align 4
  ret i32 %75
}