; Function Attrs: nounwind uwtable
define dso_local range(i32 0, 2) i32 @setup_tests() local_unnamed_addr #1 {
  %1 = alloca ptr, align 8
  %2 = alloca ptr, align 8
  %3 = tail call i32 @test_skip_common_options() #5
  %.not = icmp eq i32 %3, 0
  br i1 %.not, label %4, label %5

4:                                                ; preds = %0
  tail call void (ptr, i32, ptr, ...) @test_error(ptr noundef nonnull @.str.14, i32 noundef 686, ptr noundef nonnull @.str.15) #5
  br label %.loopexit

5:                                                ; preds = %0
  %6 = tail call i64 @test_get_argument_count() #5
  %.not12 = icmp eq i64 %6, 2
  br i1 %.not12, label %8, label %7

7:                                                ; preds = %5
  tail call void (ptr, i32, ptr, ...) @test_error(ptr noundef nonnull @.str.14, i32 noundef 690, ptr noundef nonnull @.str.16, ptr noundef nonnull @.str.17) #5
  br label %.loopexit

8:                                                ; preds = %5
  tail call void (ptr, i32, ptr, ...) @test_info(ptr noundef nonnull @.str.14, i32 noundef 694, ptr noundef nonnull @.str.18) #5
  br label %sub_0

sub_0:                                            ; preds = %8, %64
  %.016 = phi i64 [ 0, %8 ], [ %65, %64 ]
  %9 = getelementptr inbounds nuw [5 x %struct.key_st], ptr @keys, i64 0, i64 %.016
  %10 = load ptr, ptr %9, align 16, !tbaa !4
  %11 = load i8, ptr %10, align 1
  %.not17 = icmp eq i8 %11, 68
  br i1 %.not17, label %sub_1, label %.tail.thread

sub_1:                                            ; preds = %sub_0
  %12 = getelementptr inbounds nuw i8, ptr %10, i64 1
  %13 = load i8, ptr %12, align 1
  %.not18 = icmp eq i8 %13, 72
  br i1 %.not18, label %.tail, label %.tail.thread

.tail:                                            ; preds = %sub_1
  %14 = getelementptr inbounds nuw i8, ptr %10, i64 2
  %15 = load i8, ptr %14, align 1
  %16 = icmp eq i8 %15, 0
  br i1 %16, label %17, label %.tail.thread

17:                                               ; preds = %.tail
  %18 = call ptr @test_get_argument(i64 noundef 1) #5
  %19 = call ptr @load_pkey_pem(ptr noundef %18, ptr noundef null) #5
  %20 = getelementptr inbounds nuw i8, ptr %9, i64 24
  store ptr %19, ptr %20, align 8, !tbaa !13
  %21 = call i32 @test_ptr(ptr noundef nonnull @.str.14, i32 noundef 700, ptr noundef nonnull @.str.20, ptr noundef %19) #5
  %.not15 = icmp eq i32 %21, 0
  br i1 %.not15, label %.loopexit, label %64

.tail.thread:                                     ; preds = %sub_1, %sub_0, %.tail
  %22 = call i32 @strcmp(ptr noundef nonnull dereferenceable(1) %10, ptr noundef nonnull dereferenceable(4) @.str.21) #6
  %23 = icmp eq i32 %22, 0
  br i1 %23, label %24, label %29

24:                                               ; preds = %.tail.thread
  %25 = call ptr @test_get_argument(i64 noundef 0) #5
  %26 = call ptr @load_pkey_pem(ptr noundef %25, ptr noundef null) #5
  %27 = getelementptr inbounds nuw i8, ptr %9, i64 24
  store ptr %26, ptr %27, align 8, !tbaa !13
  %28 = call i32 @test_ptr(ptr noundef nonnull @.str.14, i32 noundef 708, ptr noundef nonnull @.str.22, ptr noundef %26) #5
  %.not14 = icmp eq i32 %28, 0
  br i1 %.not14, label %.loopexit, label %64

29:                                               ; preds = %.tail.thread
  call void (ptr, i32, ptr, ...) @test_info(ptr noundef nonnull @.str.14, i32 noundef 713, ptr noundef nonnull @.str.23, ptr noundef nonnull %10) #5
  %30 = load ptr, ptr %9, align 16, !tbaa !4
  %31 = getelementptr inbounds nuw i8, ptr %9, i64 16
  %32 = load ptr, ptr %31, align 16, !tbaa !14
  call void @llvm.lifetime.start.p0(i64 8, ptr nonnull %1) #5
  store ptr null, ptr %1, align 8, !tbaa !15
  call void @llvm.lifetime.start.p0(i64 8, ptr nonnull %2) #5
  store ptr null, ptr %2, align 8, !tbaa !15
  %.not.i = icmp eq ptr %32, null
  br i1 %.not.i, label %47, label %33

33:                                               ; preds = %29
  %34 = call ptr @EVP_PKEY_CTX_new_from_name(ptr noundef null, ptr noundef %30, ptr noundef null) #5
  %35 = icmp eq ptr %34, null
  br i1 %35, label %make_key.exit, label %36

36:                                               ; preds = %33
  %37 = call i32 @EVP_PKEY_paramgen_init(ptr noundef nonnull %34) #5
  %38 = icmp slt i32 %37, 1
  br i1 %38, label %make_key.exit, label %39

39:                                               ; preds = %36
  %40 = load ptr, ptr %32, align 8, !tbaa !16
  %.not20.i = icmp eq ptr %40, null
  br i1 %.not20.i, label %44, label %41

41:                                               ; preds = %39
  %42 = call i32 @EVP_PKEY_CTX_set_params(ptr noundef nonnull %34, ptr noundef nonnull %32) #5
  %43 = icmp slt i32 %42, 1
  br i1 %43, label %make_key.exit, label %44

44:                                               ; preds = %41, %39
  %45 = call i32 @EVP_PKEY_generate(ptr noundef nonnull %34, ptr noundef nonnull %1) #5
  %46 = icmp slt i32 %45, 1
  br i1 %46, label %make_key.exit, label %47

47:                                               ; preds = %44, %29
  %.0.i = phi ptr [ %34, %44 ], [ null, %29 ]
  call void @EVP_PKEY_CTX_free(ptr noundef %.0.i) #5
  %48 = load ptr, ptr %1, align 8, !tbaa !15
  %.not21.i = icmp eq ptr %48, null
  br i1 %.not21.i, label %51, label %49

49:                                               ; preds = %47
  %50 = call ptr @EVP_PKEY_CTX_new(ptr noundef nonnull %48, ptr noundef null) #5
  br label %53

51:                                               ; preds = %47
  %52 = call ptr @EVP_PKEY_CTX_new_from_name(ptr noundef null, ptr noundef %30, ptr noundef null) #5
  br label %53

53:                                               ; preds = %51, %49
  %54 = phi ptr [ %50, %49 ], [ %52, %51 ]
  %.not22.i = icmp eq ptr %54, null
  br i1 %.not22.i, label %make_key.exit, label %55

55:                                               ; preds = %53
  %56 = call i32 @EVP_PKEY_keygen_init(ptr noundef nonnull %54) #5
  %57 = icmp sgt i32 %56, 0
  br i1 %57, label %58, label %make_key.exit

58:                                               ; preds = %55
  %59 = call i32 @EVP_PKEY_keygen(ptr noundef nonnull %54, ptr noundef nonnull %2) #5
  br label %make_key.exit

make_key.exit:                                    ; preds = %33, %36, %41, %44, %53, %55, %58
  %.1.i = phi ptr [ null, %33 ], [ %34, %36 ], [ %34, %41 ], [ %34, %44 ], [ %54, %58 ], [ %54, %55 ], [ null, %53 ]
  %60 = load ptr, ptr %1, align 8, !tbaa !15
  call void @EVP_PKEY_free(ptr noundef %60) #5
  call void @EVP_PKEY_CTX_free(ptr noundef %.1.i) #5
  %61 = load ptr, ptr %2, align 8, !tbaa !15
  call void @llvm.lifetime.end.p0(i64 8, ptr nonnull %2) #5
  call void @llvm.lifetime.end.p0(i64 8, ptr nonnull %1) #5
  %62 = getelementptr inbounds nuw i8, ptr %9, i64 24
  store ptr %61, ptr %62, align 8, !tbaa !13
  %63 = call i32 @test_ptr(ptr noundef nonnull @.str.14, i32 noundef 715, ptr noundef nonnull @.str.24, ptr noundef %61) #5
  %.not13 = icmp eq i32 %63, 0
  br i1 %.not13, label %.loopexit, label %64

64:                                               ; preds = %make_key.exit, %24, %17
  %65 = add nuw nsw i64 %.016, 1
  %exitcond.not = icmp eq i64 %65, 5
  br i1 %exitcond.not, label %66, label %sub_0, !llvm.loop !19

66:                                               ; preds = %64
  call void (ptr, i32, ptr, ...) @test_info(ptr noundef nonnull @.str.14, i32 noundef 719, ptr noundef nonnull @.str.25) #5
  call void @add_all_tests(ptr noundef nonnull @.str.26, ptr noundef nonnull @test_key, i32 noundef 5, i32 noundef 1) #5
  br label %.loopexit

.loopexit:                                        ; preds = %make_key.exit, %24, %17, %66, %7, %4
  %.011 = phi i32 [ 0, %7 ], [ 1, %66 ], [ 0, %4 ], [ 0, %17 ], [ 0, %24 ], [ 0, %make_key.exit ]
  ret i32 %.011
}